target datalayout = "e-m:e-p270:32:32-p271:32:32-p272:64:64-i64:64-i128:128-f80:128-n8:16:32:64-S128"
target triple = "x86_64-pc-linux-gnu"

%struct.rb_data_type_struct = type { ptr, %struct.anon, ptr, ptr, i64 }
%struct.anon = type { ptr, ptr, ptr, ptr, [1 x ptr] }
%struct.anon.0 = type { i8, i8 }
%struct.rb_random_mt_t = type { %struct.rb_random_struct, %struct.MT }
%struct.rb_random_struct = type { i64 }
%struct.MT = type { [624 x i32], ptr, i32 }
%struct.RData = type { %struct.RBasic, ptr, ptr, ptr }
%struct.RBasic = type { i64, i64 }
%struct.RTypedData = type { %struct.RBasic, ptr, i64, ptr }

@default_rand_key = internal global ptr null, align 8
@rb_random_data_type_1_0 = dso_local constant %struct.rb_data_type_struct { ptr @.str, %struct.anon { ptr @rb_random_mark, ptr inttoptr (i64 -1 to ptr), ptr @random_memsize, ptr null, [1 x ptr] zeroinitializer }, ptr null, ptr null, i64 1 }, align 8
@rb_cRandom = dso_local global i64 0, align 8
@random_mt_if = internal constant { i64, %struct.anon.0, i16, [4 x i8], ptr, ptr, ptr, ptr, ptr } { i64 128, %struct.anon.0 { i8 1, i8 0 }, i16 0, [4 x i8] zeroinitializer, ptr @rand_mt_init, ptr @rand_mt_init_int32, ptr @rand_mt_get_int32, ptr @rand_mt_get_bytes, ptr null }, align 8
@random_mt_type = internal constant %struct.rb_data_type_struct { ptr @.str.24, %struct.anon { ptr @rb_random_mark, ptr inttoptr (i64 -1 to ptr), ptr @random_mt_memsize, ptr null, [1 x ptr] zeroinitializer }, ptr @rb_random_data_type_1_0, ptr @random_mt_if, i64 1 }, align 8
@rb_eArgError = external global i64, align 8
@.str.23 = private unnamed_addr constant [25 x i8] c"uninitialized random: %s\00", align 1

; Function Attrs: nounwind sspstrong uwtable
define internal ptr @rand_mt_start(ptr noundef %0) #0 {
  %2 = alloca ptr, align 8
  store ptr %0, ptr %2, align 8, !tbaa !20
  %3 = load ptr, ptr %2, align 8, !tbaa !20
  %4 = getelementptr inbounds nuw %struct.rb_random_mt_t, ptr %3, i32 0, i32 1
  %5 = getelementptr inbounds nuw %struct.MT, ptr %4, i32 0, i32 1
  %6 = load ptr, ptr %5, align 8, !tbaa !70
  %7 = icmp ne ptr %6, null
  br i1 %7, label %16, label %8

8:                                                ; preds = %1
  %9 = load ptr, ptr %2, align 8, !tbaa !20
  %10 = getelementptr inbounds nuw %struct.rb_random_mt_t, ptr %9, i32 0, i32 0
  %11 = call i64 @random_seed(i64 noundef 36)
  %12 = call i64 @rand_init(ptr noundef @random_mt_if, ptr noundef %10, i64 noundef %11)
  %13 = load ptr, ptr %2, align 8, !tbaa !20
  %14 = getelementptr inbounds nuw %struct.rb_random_mt_t, ptr %13, i32 0, i32 0
  %15 = getelementptr inbounds nuw %struct.rb_random_struct, ptr %14, i32 0, i32 0
  store i64 %12, ptr %15, align 8, !tbaa !72
  br label %16

16:                                               ; preds = %8, %1
  %17 = load ptr, ptr %2, align 8, !tbaa !20
  ret ptr %17
}

; Function Attrs: inlinehint nounwind sspstrong willreturn memory(read) uwtable
define internal ptr @RTYPEDDATA_TYPE(i64 noundef %0) #6 {
  %2 = alloca i64, align 8
  store i64 %0, ptr %2, align 8, !tbaa !26
  %3 = load i64, ptr %2, align 8, !tbaa !26
  %4 = inttoptr i64 %3 to ptr
  %5 = getelementptr inbounds nuw %struct.RTypedData, ptr %4, i32 0, i32 1
  %6 = load ptr, ptr %5, align 8, !tbaa !86
  ret ptr %6
}

; Function Attrs: nounwind sspstrong uwtable
define internal ptr @rand_start(ptr noundef %0) #0 {
  %2 = alloca ptr, align 8
  store ptr %0, ptr %2, align 8, !tbaa !20
  %3 = load ptr, ptr %2, align 8, !tbaa !20
  %4 = call ptr @rand_mt_start(ptr noundef %3)
  %5 = getelementptr inbounds nuw %struct.rb_random_mt_t, ptr %4, i32 0, i32 0
  ret ptr %5
}

; Function Attrs: nounwind sspstrong uwtable
define internal ptr @default_rand() #0 {
  %1 = alloca ptr, align 8
  call void @llvm.lifetime.start.p0(i64 8, ptr %1) #24
  %2 = load ptr, ptr @default_rand_key, align 8, !tbaa !7
  %3 = call ptr @rb_ractor_local_storage_ptr(ptr noundef %2)
  store ptr %3, ptr %1, align 8, !tbaa !20
  %4 = icmp eq ptr %3, null
  br i1 %4, label %5, label %9

5:                                                ; preds = %0
  %6 = call noalias nonnull ptr @ruby_xcalloc(i64 noundef 1, i64 noundef 2520) #29
  store ptr %6, ptr %1, align 8, !tbaa !20
  %7 = load ptr, ptr @default_rand_key, align 8, !tbaa !7
  %8 = load ptr, ptr %1, align 8, !tbaa !20
  call void @rb_ractor_local_storage_ptr_set(ptr noundef %7, ptr noundef %8)
  br label %9

9:                                                ; preds = %5, %0
  %10 = load ptr, ptr %1, align 8, !tbaa !20
  call void @llvm.lifetime.end.p0(i64 8, ptr %1) #24
  ret ptr %10
}

; Function Attrs: nounwind sspstrong uwtable
define internal ptr @try_get_rnd(i64 noundef %0) #0 {
  %2 = alloca ptr, align 8
  %3 = alloca i64, align 8
  %4 = alloca ptr, align 8
  store i64 %0, ptr %3, align 8, !tbaa !26
  %5 = load i64, ptr %3, align 8, !tbaa !26
  %6 = load i64, ptr @rb_cRandom, align 8, !tbaa !26
  %7 = icmp eq i64 %5, %6
  br i1 %7, label %8, label %11

8:                                                ; preds = %1
  %9 = call ptr @default_rand()
  %10 = call ptr @rand_start(ptr noundef %9)
  store ptr %10, ptr %2, align 8
  br label %41

11:                                               ; preds = %1
  %12 = load i64, ptr %3, align 8, !tbaa !26
  %13 = call i32 @rb_typeddata_is_kind_of(i64 noundef %12, ptr noundef @rb_random_data_type_1_0)
  %14 = icmp ne i32 %13, 0
  br i1 %14, label %16, label %15

15:                                               ; preds = %11
  store ptr null, ptr %2, align 8
  br label %41

16:                                               ; preds = %11
  %17 = load i64, ptr %3, align 8, !tbaa !26
  %18 = call ptr @RTYPEDDATA_TYPE(i64 noundef %17) #26
  %19 = icmp eq ptr %18, @random_mt_type
  br i1 %19, label %20, label %26

20:                                               ; preds = %16
  %21 = load i64, ptr %3, align 8, !tbaa !26
  %22 = inttoptr i64 %21 to ptr
  %23 = getelementptr inbounds nuw %struct.RData, ptr %22, i32 0, i32 3
  %24 = load ptr, ptr %23, align 8, !tbaa !38
  %25 = call ptr @rand_start(ptr noundef %24)
  store ptr %25, ptr %2, align 8
  br label %41

26:                                               ; preds = %16
  call void @llvm.lifetime.start.p0(i64 8, ptr %4) #24
  %27 = load i64, ptr %3, align 8, !tbaa !26
  %28 = inttoptr i64 %27 to ptr
  %29 = getelementptr inbounds nuw %struct.RData, ptr %28, i32 0, i32 3
  %30 = load ptr, ptr %29, align 8, !tbaa !38
  store ptr %30, ptr %4, align 8, !tbaa !24
  %31 = load ptr, ptr %4, align 8, !tbaa !24
  %32 = icmp ne ptr %31, null
  br i1 %32, label %39, label %33

33:                                               ; preds = %26
  %34 = load i64, ptr @rb_eArgError, align 8, !tbaa !26
  %35 = load i64, ptr %3, align 8, !tbaa !26
  %36 = call ptr @RTYPEDDATA_TYPE(i64 noundef %35) #26
  %37 = getelementptr inbounds nuw %struct.rb_data_type_struct, ptr %36, i32 0, i32 0
  %38 = load ptr, ptr %37, align 8, !tbaa !41
  call void (i64, ptr, ...) @rb_raise(i64 noundef %34, ptr noundef @.str.23, ptr noundef %38) #27
  unreachable

39:                                               ; preds = %26
  %40 = load ptr, ptr %4, align 8, !tbaa !24
  store ptr %40, ptr %2, align 8
  call void @llvm.lifetime.end.p0(i64 8, ptr %4) #24
  br label %41

41:                                               ; preds = %39, %20, %15, %8
  %42 = load ptr, ptr %2, align 8
  ret ptr %42
}