; Function Attrs: nounwind sspstrong uwtable
define internal fastcc ptr @try_get_rnd(i64 noundef %0) unnamed_addr #0 {
  %2 = load i64, ptr @rb_cRandom, align 8, !tbaa !43
  %3 = icmp eq i64 %0, %2
  br i1 %3, label %4, label %13

4:                                                ; preds = %1
  %5 = load ptr, ptr @default_rand_key, align 8, !tbaa !7
  %6 = tail call ptr @rb_ractor_local_storage_ptr(ptr noundef %5) #23
  %7 = icmp eq ptr %6, null
  br i1 %7, label %8, label %default_rand.exit

8:                                                ; preds = %4
  %9 = tail call noalias nonnull dereferenceable(2520) ptr @ruby_xcalloc(i64 noundef 1, i64 noundef 2520) #24
  %10 = load ptr, ptr @default_rand_key, align 8, !tbaa !7
  tail call void @rb_ractor_local_storage_ptr_set(ptr noundef %10, ptr noundef nonnull %9) #23
  br label %default_rand.exit

default_rand.exit:                                ; preds = %4, %8
  %.0.i = phi ptr [ %9, %8 ], [ %6, %4 ]
  %11 = getelementptr inbounds nuw i8, ptr %.0.i, i64 2504
  %12 = load ptr, ptr %11, align 8, !tbaa !12
  %.not.i.i = icmp eq ptr %12, null
  br i1 %.not.i.i, label %rand_start.exit.sink.split, label %rand_start.exit

13:                                               ; preds = %1
  %14 = tail call i32 @rb_typeddata_is_kind_of(i64 noundef %0, ptr noundef nonnull @rb_random_data_type_1_0) #23
  %.not = icmp eq i32 %14, 0
  br i1 %.not, label %rand_start.exit, label %15

15:                                               ; preds = %13
  %16 = inttoptr i64 %0 to ptr
  %17 = getelementptr inbounds nuw i8, ptr %16, i64 16
  %18 = load ptr, ptr %17, align 8, !tbaa !31
  %19 = icmp eq ptr %18, @random_mt_type
  %20 = getelementptr inbounds nuw i8, ptr %16, i64 32
  %21 = load ptr, ptr %20, align 8, !tbaa !44
  br i1 %19, label %22, label %25

22:                                               ; preds = %15
  %23 = getelementptr inbounds nuw i8, ptr %21, i64 2504
  %24 = load ptr, ptr %23, align 8, !tbaa !12
  %.not.i.i12 = icmp eq ptr %24, null
  br i1 %.not.i.i12, label %rand_start.exit.sink.split, label %rand_start.exit

25:                                               ; preds = %15
  %.not11 = icmp eq ptr %21, null
  br i1 %.not11, label %26, label %rand_start.exit

26:                                               ; preds = %25
  %27 = load i64, ptr @rb_eArgError, align 8, !tbaa !43
  %28 = load ptr, ptr %18, align 8, !tbaa !46
  tail call void (i64, ptr, ...) @rb_raise(i64 noundef %27, ptr noundef nonnull @.str.23, ptr noundef %28) #25
  unreachable

rand_start.exit.sink.split:                       ; preds = %22, %default_rand.exit
  %.sink15 = phi ptr [ %.0.i, %default_rand.exit ], [ %21, %22 ]
  %29 = tail call i64 @random_seed(i64 poison)
  %30 = tail call fastcc i64 @rand_init(ptr noundef nonnull @random_mt_if, ptr noundef nonnull %.sink15, i64 noundef %29)
  store i64 %29, ptr %.sink15, align 8, !tbaa !19
  br label %rand_start.exit

rand_start.exit:                                  ; preds = %rand_start.exit.sink.split, %22, %default_rand.exit, %25, %13
  %.0 = phi ptr [ null, %13 ], [ %21, %25 ], [ %.0.i, %default_rand.exit ], [ %21, %22 ], [ %.sink15, %rand_start.exit.sink.split ]
  ret ptr %.0
}